; Function Attrs: mustprogress nounwind uwtable
define hidden noundef i32 @_ZN19G1HeapRegionManager17find_highest_freeEPb(ptr noundef nonnull align 8 dereferenceable(232) %0, ptr nocapture noundef writeonly %1) local_unnamed_addr #0 align 2 {
  %3 = getelementptr inbounds i8, ptr %0, i64 112
  %4 = load i64, ptr %3, align 8
  %5 = getelementptr inbounds i8, ptr %0, i64 104
  %6 = getelementptr inbounds i8, ptr %0, i64 24
  %7 = and i64 %4, 4294967295
  br label %8

8:                                                ; preds = %24, %2
  %indvars.iv = phi i64 [ %indvars.iv.next, %24 ], [ %7, %2 ]
  %indvars.iv.next = add nsw i64 %indvars.iv, -1
  %.not = icmp eq i64 %indvars.iv, 0
  br i1 %.not, label %.loopexit, label %9

9:                                                ; preds = %8
  %10 = and i64 %indvars.iv.next, 4294967295
  %11 = load ptr, ptr %5, align 8
  %12 = getelementptr inbounds ptr, ptr %11, i64 %10
  %13 = load ptr, ptr %12, align 8
  %14 = icmp eq ptr %13, null
  br i1 %14, label %23, label %15

15:                                               ; preds = %9
  %16 = load ptr, ptr %6, align 8
  %17 = lshr i64 %10, 6
  %18 = getelementptr inbounds i64, ptr %16, i64 %17
  %19 = load volatile i64, ptr %18, align 8
  tail call void asm sideeffect "", "~{memory},~{dirflag},~{fpsr},~{flags}"() #16, !srcloc !11
  %20 = and i64 %indvars.iv.next, 63
  %21 = shl nuw i64 1, %20
  %22 = and i64 %19, %21
  %.not13 = icmp eq i64 %22, 0
  br i1 %.not13, label %23, label %24

23:                                               ; preds = %15, %9
  %indvars.le21 = trunc i64 %indvars.iv.next to i32
  tail call void @_ZN19G1HeapRegionManager12expand_exactEjjP13WorkerThreads(ptr noundef nonnull align 8 dereferenceable(232) %0, i32 noundef %indvars.le21, i32 noundef 1, ptr noundef null)
  br label %.loopexit.sink.split

24:                                               ; preds = %15
  %25 = getelementptr inbounds i8, ptr %13, i64 52
  %26 = load volatile i32, ptr %25, align 4
  %27 = icmp eq i32 %26, 0
  br i1 %27, label %28, label %8, !llvm.loop !27

28:                                               ; preds = %24
  %indvars.le = trunc i64 %indvars.iv.next to i32
  br label %.loopexit.sink.split

.loopexit.sink.split:                             ; preds = %23, %28
  %.sink = phi i8 [ 0, %28 ], [ 1, %23 ]
  %.ph = phi i32 [ %indvars.le, %28 ], [ %indvars.le21, %23 ]
  store i8 %.sink, ptr %1, align 1
  br label %.loopexit

.loopexit:                                        ; preds = %8, %.loopexit.sink.split
  %29 = phi i32 [ %.ph, %.loopexit.sink.split ], [ -1, %8 ]
  ret i32 %29
}